; Function Attrs: nounwind uwtable
define internal void @stbir__horizontal_gather_7_channels_with_8_coeffs(ptr noundef writeonly captures(address) %0, i32 noundef %1, ptr noundef %2, ptr noundef readonly captures(none) %3, ptr noundef readonly captures(none) %4, i32 noundef %5) #22 {
  %7 = mul i32 %1, 7
  %8 = zext i32 %7 to i64
  %9 = getelementptr inbounds nuw float, ptr %0, i64 %8
  %10 = sext i32 %5 to i64
  br label %11

11:                                               ; preds = %11, %6
  %.076 = phi ptr [ %0, %6 ], [ %91, %11 ]
  %.075 = phi ptr [ %4, %6 ], [ %89, %11 ]
  %.0 = phi ptr [ %3, %6 ], [ %90, %11 ]
  %12 = load i32, ptr %.0, align 4
  %13 = mul nsw i32 %12, 7
  %14 = sext i32 %13 to i64
  %15 = getelementptr inbounds float, ptr %2, i64 %14
  tail call void asm sideeffect "", "r,~{dirflag},~{fpsr},~{flags}"(ptr %15) #54, !srcloc !598
  %16 = load <4 x float>, ptr %.075, align 1
  %17 = shufflevector <4 x float> %16, <4 x float> poison, <4 x i32> zeroinitializer
  %18 = load <4 x float>, ptr %15, align 1
  %19 = fmul <4 x float> %18, %17
  %20 = getelementptr inbounds nuw i8, ptr %15, i64 12
  %21 = load <4 x float>, ptr %20, align 1
  %22 = fmul <4 x float> %17, %21
  %23 = shufflevector <4 x float> %16, <4 x float> poison, <4 x i32> <i32 1, i32 1, i32 1, i32 1>
  %24 = getelementptr inbounds nuw i8, ptr %15, i64 28
  %25 = load <4 x float>, ptr %24, align 1
  %26 = fmul <4 x float> %23, %25
  %27 = getelementptr inbounds nuw i8, ptr %15, i64 40
  %28 = load <4 x float>, ptr %27, align 1
  %29 = fmul <4 x float> %23, %28
  %30 = shufflevector <4 x float> %16, <4 x float> poison, <4 x i32> <i32 2, i32 2, i32 2, i32 2>
  %31 = getelementptr inbounds nuw i8, ptr %15, i64 56
  %32 = load <4 x float>, ptr %31, align 1
  %33 = fmul <4 x float> %30, %32
  %34 = fadd <4 x float> %19, %33
  %35 = getelementptr inbounds nuw i8, ptr %15, i64 68
  %36 = load <4 x float>, ptr %35, align 1
  %37 = fmul <4 x float> %30, %36
  %38 = fadd <4 x float> %22, %37
  %39 = shufflevector <4 x float> %16, <4 x float> poison, <4 x i32> <i32 3, i32 3, i32 3, i32 3>
  %40 = getelementptr inbounds nuw i8, ptr %15, i64 84
  %41 = load <4 x float>, ptr %40, align 1
  %42 = fmul <4 x float> %39, %41
  %43 = fadd <4 x float> %26, %42
  %44 = getelementptr inbounds nuw i8, ptr %15, i64 96
  %45 = load <4 x float>, ptr %44, align 1
  %46 = fmul <4 x float> %39, %45
  %47 = fadd <4 x float> %29, %46
  tail call void asm sideeffect "", "r,~{dirflag},~{fpsr},~{flags}"(ptr nonnull %15) #54, !srcloc !599
  %48 = getelementptr inbounds nuw i8, ptr %.075, i64 16
  %49 = load <4 x float>, ptr %48, align 1
  %50 = shufflevector <4 x float> %49, <4 x float> poison, <4 x i32> zeroinitializer
  %51 = getelementptr inbounds nuw i8, ptr %15, i64 112
  %52 = load <4 x float>, ptr %51, align 1
  %53 = fmul <4 x float> %52, %50
  %54 = fadd <4 x float> %34, %53
  %55 = getelementptr inbounds nuw i8, ptr %15, i64 124
  %56 = load <4 x float>, ptr %55, align 1
  %57 = fmul <4 x float> %50, %56
  %58 = fadd <4 x float> %38, %57
  %59 = shufflevector <4 x float> %49, <4 x float> poison, <4 x i32> <i32 1, i32 1, i32 1, i32 1>
  %60 = getelementptr inbounds nuw i8, ptr %15, i64 140
  %61 = load <4 x float>, ptr %60, align 1
  %62 = fmul <4 x float> %59, %61
  %63 = fadd <4 x float> %43, %62
  %64 = getelementptr inbounds nuw i8, ptr %15, i64 152
  %65 = load <4 x float>, ptr %64, align 1
  %66 = fmul <4 x float> %59, %65
  %67 = fadd <4 x float> %47, %66
  %68 = shufflevector <4 x float> %49, <4 x float> poison, <4 x i32> <i32 2, i32 2, i32 2, i32 2>
  %69 = getelementptr inbounds nuw i8, ptr %15, i64 168
  %70 = load <4 x float>, ptr %69, align 1
  %71 = fmul <4 x float> %68, %70
  %72 = fadd <4 x float> %54, %71
  %73 = getelementptr inbounds nuw i8, ptr %15, i64 180
  %74 = load <4 x float>, ptr %73, align 1
  %75 = fmul <4 x float> %68, %74
  %76 = fadd <4 x float> %58, %75
  %77 = shufflevector <4 x float> %49, <4 x float> poison, <4 x i32> <i32 3, i32 3, i32 3, i32 3>
  %78 = getelementptr inbounds nuw i8, ptr %15, i64 196
  %79 = load <4 x float>, ptr %78, align 1
  %80 = fmul <4 x float> %77, %79
  %81 = fadd <4 x float> %63, %80
  %82 = getelementptr inbounds nuw i8, ptr %15, i64 208
  %83 = load <4 x float>, ptr %82, align 1
  %84 = fmul <4 x float> %77, %83
  %85 = fadd <4 x float> %67, %84
  %86 = fadd <4 x float> %72, %81
  %87 = fadd <4 x float> %76, %85
  %88 = getelementptr inbounds nuw i8, ptr %.076, i64 12
  store <4 x float> %87, ptr %88, align 1
  store <4 x float> %86, ptr %.076, align 1
  %89 = getelementptr inbounds float, ptr %.075, i64 %10
  %90 = getelementptr inbounds nuw i8, ptr %.0, i64 8
  %91 = getelementptr inbounds nuw i8, ptr %.076, i64 28
  %92 = icmp ult ptr %91, %9
  br i1 %92, label %11, label %93, !llvm.loop !600

93:                                               ; preds = %11
  ret void
}